; Function Attrs: nounwind sspstrong uwtable
define internal i64 @int_to_f(i64 noundef %0) #2 {
  %2 = and i64 %0, 1
  %.not = icmp eq i64 %2, 0
  br i1 %.not, label %6, label %3

3:                                                ; preds = %1
  %4 = ashr i64 %0, 1
  %5 = sitofp i64 %4 to double
  br label %19

6:                                                ; preds = %1
  %7 = icmp eq i64 %0, 0
  %8 = and i64 %0, 6
  %9 = icmp ne i64 %8, 0
  %10 = or i1 %7, %9
  br i1 %10, label %rbimpl_RB_TYPE_P_fastpath.exit.thread, label %rbimpl_RB_TYPE_P_fastpath.exit

rbimpl_RB_TYPE_P_fastpath.exit:                   ; preds = %6
  %11 = inttoptr i64 %0 to ptr
  %12 = load i64, ptr %11, align 8, !tbaa !11
  %13 = and i64 %12, 31
  %14 = icmp eq i64 %13, 10
  br i1 %14, label %15, label %rbimpl_RB_TYPE_P_fastpath.exit.thread

15:                                               ; preds = %rbimpl_RB_TYPE_P_fastpath.exit
  %16 = tail call double @rb_big2dbl(i64 noundef %0) #26
  br label %19

rbimpl_RB_TYPE_P_fastpath.exit.thread:            ; preds = %6, %rbimpl_RB_TYPE_P_fastpath.exit
  %17 = load i64, ptr @rb_eNotImpError, align 8, !tbaa !7
  %18 = tail call ptr @rb_obj_classname(i64 noundef %0) #26
  tail call void (i64, ptr, ...) @rb_raise(i64 noundef %17, ptr noundef nonnull @.str.159, ptr noundef %18) #25
  unreachable

19:                                               ; preds = %15, %3
  %.0 = phi double [ %5, %3 ], [ %16, %15 ]
  %20 = bitcast double %.0 to i64
  %cond.i = icmp eq i64 %20, 3458764513820540928
  br i1 %cond.i, label %32, label %21

21:                                               ; preds = %19
  %22 = lshr i64 %20, 60
  %23 = trunc nuw nsw i64 %22 to i32
  %24 = and i32 %23, 7
  %25 = add nsw i32 %24, -3
  %.not7.i = icmp ult i32 %25, 2
  br i1 %.not7.i, label %26, label %30

26:                                               ; preds = %21
  %27 = tail call noundef i64 @llvm.fshl.i64(i64 range(i64 3458764513820540929, 3458764513820540928) %20, i64 range(i64 3458764513820540929, 3458764513820540928) %20, i64 3)
  %28 = and i64 %27, -4
  %29 = or disjoint i64 %28, 2
  br label %rb_float_new_inline.exit

30:                                               ; preds = %21
  %31 = icmp eq i64 %20, 0
  br i1 %31, label %rb_float_new_inline.exit, label %32

32:                                               ; preds = %30, %19
  %33 = tail call align 8 ptr @llvm.threadlocal.address.p0(ptr align 8 @ruby_current_ec)
  %34 = load ptr, ptr %33, align 8, !tbaa !21
  %35 = load i64, ptr @rb_cFloat, align 8, !tbaa !7
  %36 = tail call i64 @rb_wb_protected_newobj_of(ptr noundef %34, i64 noundef %35, i64 noundef 4, i64 noundef 24) #26
  %37 = inttoptr i64 %36 to ptr
  %38 = getelementptr inbounds nuw i8, ptr %37, i64 16
  store double %.0, ptr %38, align 8, !tbaa !24
  tail call void @rb_obj_freeze_inline(i64 noundef %36) #26
  br label %rb_float_new_inline.exit

rb_float_new_inline.exit:                         ; preds = %26, %30, %32
  %.0.i5 = phi i64 [ %36, %32 ], [ %29, %26 ], [ -9223372036854775806, %30 ]
  ret i64 %.0.i5
}